target datalayout = "e-m:e-p270:32:32-p271:32:32-p272:64:64-i64:64-i128:128-f80:128-n8:16:32:64-S128"
target triple = "x86_64-unknown-linux-gnu"

%"class.google::protobuf::internal::InternalMetadata" = type { i64 }
%"class.google::protobuf::internal::CachedSize" = type { i32 }
%"class.google::protobuf::Message" = type { %"class.google::protobuf::MessageLite" }
%"class.google::protobuf::MessageLite" = type { ptr, %"class.google::protobuf::internal::InternalMetadata" }
%"struct.google::protobuf::internal::InternalMetadata::Container" = type { %"struct.google::protobuf::internal::InternalMetadata::ContainerBase", %"class.google::protobuf::UnknownFieldSet" }
%"struct.google::protobuf::internal::InternalMetadata::ContainerBase" = type { ptr }
%"class.google::protobuf::UnknownFieldSet" = type { %"class.std::vector" }
%"class.std::vector" = type { %"struct.std::_Vector_base" }
%"struct.std::_Vector_base" = type { %"struct.std::_Vector_base<google::protobuf::UnknownField, std::allocator<google::protobuf::UnknownField>>::_Vector_impl" }
%"struct.std::_Vector_base<google::protobuf::UnknownField, std::allocator<google::protobuf::UnknownField>>::_Vector_impl" = type { %"struct.std::_Vector_base<google::protobuf::UnknownField, std::allocator<google::protobuf::UnknownField>>::_Vector_impl_data" }
%"struct.std::_Vector_base<google::protobuf::UnknownField, std::allocator<google::protobuf::UnknownField>>::_Vector_impl_data" = type { ptr, ptr, ptr }
%"class.google::protobuf::io::EpsCopyOutputStream" = type <{ ptr, ptr, [32 x i8], ptr, i8, i8, i8, i8, [4 x i8] }>
%"class.google::protobuf::Int64Value" = type { %"class.google::protobuf::Message", %union.anon.5 }
%union.anon.5 = type { %"struct.google::protobuf::Int64Value::Impl_" }
%"struct.google::protobuf::Int64Value::Impl_" = type <{ i64, %"class.google::protobuf::internal::CachedSize", [4 x i8] }>

; Function Attrs: mustprogress uwtable
define linkonce_odr hidden noundef ptr @_ZN6google8protobuf2io17CodedOutputStream20WriteVarint64ToArrayEmPh(i64 noundef %value, ptr noundef %target) #4 comdat align 2 {
entry:
  %value.addr.i = alloca i64, align 8
  %ptr.addr.i = alloca ptr, align 8
  %value.addr = alloca i64, align 8
  %target.addr = alloca ptr, align 8
  store i64 %value, ptr %value.addr, align 8
  store ptr %target, ptr %target.addr, align 8
  %0 = load i64, ptr %value.addr, align 8
  %1 = load ptr, ptr %target.addr, align 8
  store i64 %0, ptr %value.addr.i, align 8
  store ptr %1, ptr %ptr.addr.i, align 8
  br label %while.cond.i

while.cond.i:                                     ; preds = %while.body.i, %entry
  %2 = load i64, ptr %value.addr.i, align 8
  %cmp.i = icmp uge i64 %2, 128
  br i1 %cmp.i, label %while.body.i, label %_ZN6google8protobuf2io19EpsCopyOutputStream12UnsafeVarintImEEPhT_S4_.exit

while.body.i:                                     ; preds = %while.cond.i
  %3 = load i64, ptr %value.addr.i, align 8
  %or.i = or i64 %3, 128
  %conv.i = trunc i64 %or.i to i8
  %4 = load ptr, ptr %ptr.addr.i, align 8
  store i8 %conv.i, ptr %4, align 1
  %5 = load i64, ptr %value.addr.i, align 8
  %shr.i = lshr i64 %5, 7
  store i64 %shr.i, ptr %value.addr.i, align 8
  %6 = load ptr, ptr %ptr.addr.i, align 8
  %incdec.ptr.i = getelementptr inbounds i8, ptr %6, i32 1
  store ptr %incdec.ptr.i, ptr %ptr.addr.i, align 8
  br label %while.cond.i, !llvm.loop !44

_ZN6google8protobuf2io19EpsCopyOutputStream12UnsafeVarintImEEPhT_S4_.exit: ; preds = %while.cond.i
  %7 = load i64, ptr %value.addr.i, align 8
  %conv1.i = trunc i64 %7 to i8
  %8 = load ptr, ptr %ptr.addr.i, align 8
  %incdec.ptr2.i = getelementptr inbounds i8, ptr %8, i32 1
  store ptr %incdec.ptr2.i, ptr %ptr.addr.i, align 8
  store i8 %conv1.i, ptr %8, align 1
  %9 = load ptr, ptr %ptr.addr.i, align 8
  ret ptr %9
}

; Function Attrs: mustprogress uwtable
define linkonce_odr hidden noundef ptr @_ZN6google8protobuf2io17CodedOutputStream20WriteVarint32ToArrayEjPh(i32 noundef %value, ptr noundef %target) #4 comdat align 2 {
entry:
  %value.addr.i = alloca i32, align 4
  %ptr.addr.i = alloca ptr, align 8
  %value.addr = alloca i32, align 4
  %target.addr = alloca ptr, align 8
  store i32 %value, ptr %value.addr, align 4
  store ptr %target, ptr %target.addr, align 8
  %0 = load i32, ptr %value.addr, align 4
  %1 = load ptr, ptr %target.addr, align 8
  store i32 %0, ptr %value.addr.i, align 4
  store ptr %1, ptr %ptr.addr.i, align 8
  br label %while.cond.i

while.cond.i:                                     ; preds = %while.body.i, %entry
  %2 = load i32, ptr %value.addr.i, align 4
  %cmp.i = icmp uge i32 %2, 128
  br i1 %cmp.i, label %while.body.i, label %_ZN6google8protobuf2io19EpsCopyOutputStream12UnsafeVarintIjEEPhT_S4_.exit

while.body.i:                                     ; preds = %while.cond.i
  %3 = load i32, ptr %value.addr.i, align 4
  %or.i = or i32 %3, 128
  %conv.i = trunc i32 %or.i to i8
  %4 = load ptr, ptr %ptr.addr.i, align 8
  store i8 %conv.i, ptr %4, align 1
  %5 = load i32, ptr %value.addr.i, align 4
  %shr.i = lshr i32 %5, 7
  store i32 %shr.i, ptr %value.addr.i, align 4
  %6 = load ptr, ptr %ptr.addr.i, align 8
  %incdec.ptr.i = getelementptr inbounds i8, ptr %6, i32 1
  store ptr %incdec.ptr.i, ptr %ptr.addr.i, align 8
  br label %while.cond.i, !llvm.loop !34

_ZN6google8protobuf2io19EpsCopyOutputStream12UnsafeVarintIjEEPhT_S4_.exit: ; preds = %while.cond.i
  %7 = load i32, ptr %value.addr.i, align 4
  %conv1.i = trunc i32 %7 to i8
  %8 = load ptr, ptr %ptr.addr.i, align 8
  %incdec.ptr2.i = getelementptr inbounds i8, ptr %8, i32 1
  store ptr %incdec.ptr2.i, ptr %ptr.addr.i, align 8
  store i8 %conv1.i, ptr %8, align 1
  %9 = load ptr, ptr %ptr.addr.i, align 8
  ret ptr %9
}

; Function Attrs: mustprogress nounwind uwtable
define linkonce_odr hidden noundef i32 @_ZN6google8protobuf8internal14WireFormatLite7MakeTagEiNS2_8WireTypeE(i32 noundef %field_number, i32 noundef %type) #5 comdat align 2 {
entry:
  %field_number.addr = alloca i32, align 4
  %type.addr = alloca i32, align 4
  store i32 %field_number, ptr %field_number.addr, align 4
  store i32 %type, ptr %type.addr, align 4
  %0 = load i32, ptr %field_number.addr, align 4
  %shl = shl i32 %0, 3
  %1 = load i32, ptr %type.addr, align 4
  %or = or i32 %shl, %1
  ret i32 %or
}

; Function Attrs: mustprogress uwtable
define linkonce_odr hidden noundef ptr @_ZN6google8protobuf2io19EpsCopyOutputStream11EnsureSpaceEPh(ptr noundef nonnull align 8 dereferenceable(60) %this, ptr noundef %ptr) #4 comdat align 2 {
entry:
  %retval = alloca ptr, align 8
  %this.addr = alloca ptr, align 8
  %ptr.addr = alloca ptr, align 8
  store ptr %this, ptr %this.addr, align 8
  store ptr %ptr, ptr %ptr.addr, align 8
  %this1 = load ptr, ptr %this.addr, align 8
  %0 = load ptr, ptr %ptr.addr, align 8
  %end_ = getelementptr inbounds %"class.google::protobuf::io::EpsCopyOutputStream", ptr %this1, i32 0, i32 0
  %1 = load ptr, ptr %end_, align 8
  %cmp = icmp uge ptr %0, %1
  br i1 %cmp, label %if.then, label %if.end

if.then:                                          ; preds = %entry
  %2 = load ptr, ptr %ptr.addr, align 8
  %call = call noundef ptr @_ZN6google8protobuf2io19EpsCopyOutputStream19EnsureSpaceFallbackEPh(ptr noundef nonnull align 8 dereferenceable(60) %this1, ptr noundef %2)
  store ptr %call, ptr %retval, align 8
  br label %return

if.end:                                           ; preds = %entry
  %3 = load ptr, ptr %ptr.addr, align 8
  store ptr %3, ptr %retval, align 8
  br label %return

return:                                           ; preds = %if.end, %if.then
  %4 = load ptr, ptr %retval, align 8
  ret ptr %4
}

; Function Attrs: mustprogress nounwind uwtable
define linkonce_odr hidden noundef ptr @_ZNK6google8protobuf8internal16InternalMetadata8PtrValueINS2_9ContainerINS0_15UnknownFieldSetEEEEEPT_v(ptr noundef nonnull align 8 dereferenceable(8) %this) #5 comdat align 2 {
entry:
  %this.addr = alloca ptr, align 8
  store ptr %this, ptr %this.addr, align 8
  %this1 = load ptr, ptr %this.addr, align 8
  %ptr_ = getelementptr inbounds %"class.google::protobuf::internal::InternalMetadata", ptr %this1, i32 0, i32 0
  %0 = load i64, ptr %ptr_, align 8
  %and = and i64 %0, -2
  %1 = inttoptr i64 %and to ptr
  ret ptr %1
}

; Function Attrs: mustprogress uwtable
define linkonce_odr hidden noundef ptr @_ZN6google8protobuf8internal14WireFormatLite26WriteInt64ToArrayWithFieldILi1EEEPhPNS0_2io19EpsCopyOutputStreamElS4_(ptr noundef %stream, i64 noundef %value, ptr noundef %target) #4 comdat align 2 {
entry:
  %value.addr.i2 = alloca i64, align 8
  %target.addr.i3 = alloca ptr, align 8
  %value.addr.i.i = alloca i32, align 4
  %target.addr.i2.i = alloca ptr, align 8
  %field_number.addr.i.i = alloca i32, align 4
  %type.addr.i.i = alloca i32, align 4
  %target.addr.i.i = alloca ptr, align 8
  %field_number.addr.i = alloca i32, align 4
  %value.addr.i = alloca i64, align 8
  %target.addr.i = alloca ptr, align 8
  %stream.addr = alloca ptr, align 8
  %value.addr = alloca i64, align 8
  %target.addr = alloca ptr, align 8
  store ptr %stream, ptr %stream.addr, align 8
  store i64 %value, ptr %value.addr, align 8
  store ptr %target, ptr %target.addr, align 8
  %0 = load ptr, ptr %stream.addr, align 8
  %1 = load ptr, ptr %target.addr, align 8
  %call = call noundef ptr @_ZN6google8protobuf2io19EpsCopyOutputStream11EnsureSpaceEPh(ptr noundef nonnull align 8 dereferenceable(60) %0, ptr noundef %1)
  store ptr %call, ptr %target.addr, align 8
  %2 = load i64, ptr %value.addr, align 8
  %3 = load ptr, ptr %target.addr, align 8
  store i32 1, ptr %field_number.addr.i, align 4
  store i64 %2, ptr %value.addr.i, align 8
  store ptr %3, ptr %target.addr.i, align 8
  %4 = load i32, ptr %field_number.addr.i, align 4
  %5 = load ptr, ptr %target.addr.i, align 8
  store i32 %4, ptr %field_number.addr.i.i, align 4
  store i32 0, ptr %type.addr.i.i, align 4
  store ptr %5, ptr %target.addr.i.i, align 8
  %6 = load i32, ptr %field_number.addr.i.i, align 4
  %7 = load i32, ptr %type.addr.i.i, align 4
  %call.i.i = call noundef i32 @_ZN6google8protobuf8internal14WireFormatLite7MakeTagEiNS2_8WireTypeE(i32 noundef %6, i32 noundef %7)
  %8 = load ptr, ptr %target.addr.i.i, align 8
  store i32 %call.i.i, ptr %value.addr.i.i, align 4
  store ptr %8, ptr %target.addr.i2.i, align 8
  %9 = load i32, ptr %value.addr.i.i, align 4
  %10 = load ptr, ptr %target.addr.i2.i, align 8
  %call.i3.i = call noundef ptr @_ZN6google8protobuf2io17CodedOutputStream20WriteVarint32ToArrayEjPh(i32 noundef %9, ptr noundef %10)
  store ptr %call.i3.i, ptr %target.addr.i, align 8
  %11 = load i64, ptr %value.addr.i, align 8
  %12 = load ptr, ptr %target.addr.i, align 8
  store i64 %11, ptr %value.addr.i2, align 8
  store ptr %12, ptr %target.addr.i3, align 8
  %13 = load i64, ptr %value.addr.i2, align 8
  %14 = load ptr, ptr %target.addr.i3, align 8
  %call.i = call noundef ptr @_ZN6google8protobuf2io17CodedOutputStream20WriteVarint64ToArrayEmPh(i64 noundef %13, ptr noundef %14)
  ret ptr %call.i
}

; Function Attrs: mustprogress nounwind uwtable
define linkonce_odr hidden noundef i64 @_ZNK6google8protobuf10Int64Value15_internal_valueEv(ptr noundef nonnull align 8 dereferenceable(32) %this) #5 comdat align 2 {
entry:
  %this.addr = alloca ptr, align 8
  store ptr %this, ptr %this.addr, align 8
  %this1 = load ptr, ptr %this.addr, align 8
  %0 = getelementptr inbounds %"class.google::protobuf::Int64Value", ptr %this1, i32 0, i32 1
  %value_ = getelementptr inbounds %"struct.google::protobuf::Int64Value::Impl_", ptr %0, i32 0, i32 0
  %1 = load i64, ptr %value_, align 8
  ret i64 %1
}

; Function Attrs: mustprogress uwtable
define noundef ptr @_ZNK6google8protobuf10Int64Value18_InternalSerializeEPhPNS0_2io19EpsCopyOutputStreamE(ptr noundef nonnull align 8 dereferenceable(32) %this, ptr noundef %target, ptr noundef %stream) unnamed_addr #4 align 2 {
entry:
  %this.addr.i14 = alloca ptr, align 8
  %this.addr.i12 = alloca ptr, align 8
  %this.addr.i.i = alloca ptr, align 8
  %retval.i = alloca ptr, align 8
  %this.addr.i10 = alloca ptr, align 8
  %default_instance.addr.i = alloca ptr, align 8
  %this.addr.i = alloca ptr, align 8
  %this.addr = alloca ptr, align 8
  %target.addr = alloca ptr, align 8
  %stream.addr = alloca ptr, align 8
  %cached_has_bits = alloca i32, align 4
  store ptr %this, ptr %this.addr, align 8
  store ptr %target, ptr %target.addr, align 8
  store ptr %stream, ptr %stream.addr, align 8
  %this1 = load ptr, ptr %this.addr, align 8
  store i32 0, ptr %cached_has_bits, align 4
  %call = call noundef i64 @_ZNK6google8protobuf10Int64Value15_internal_valueEv(ptr noundef nonnull align 8 dereferenceable(32) %this1)
  %cmp = icmp ne i64 %call, 0
  br i1 %cmp, label %if.then, label %if.end

if.then:                                          ; preds = %entry
  %0 = load ptr, ptr %stream.addr, align 8
  %call2 = call noundef i64 @_ZNK6google8protobuf10Int64Value15_internal_valueEv(ptr noundef nonnull align 8 dereferenceable(32) %this1)
  %1 = load ptr, ptr %target.addr, align 8
  %call3 = call noundef ptr @_ZN6google8protobuf8internal14WireFormatLite26WriteInt64ToArrayWithFieldILi1EEEPhPNS0_2io19EpsCopyOutputStreamElS4_(ptr noundef %0, i64 noundef %call2, ptr noundef %1)
  store ptr %call3, ptr %target.addr, align 8
  br label %if.end

if.end:                                           ; preds = %if.then, %entry
  %_internal_metadata_ = getelementptr inbounds %"class.google::protobuf::MessageLite", ptr %this1, i32 0, i32 1
  store ptr %_internal_metadata_, ptr %this.addr.i, align 8
  %this1.i = load ptr, ptr %this.addr.i, align 8
  store ptr %this1.i, ptr %this.addr.i14, align 8
  %this1.i15 = load ptr, ptr %this.addr.i14, align 8
  %2 = load i64, ptr %this1.i15, align 8
  %and.i16 = and i64 %2, 1
  %tobool.i17 = icmp ne i64 %and.i16, 0
  br i1 %tobool.i17, label %if.then5, label %if.end9

if.then5:                                         ; preds = %if.end
  %_internal_metadata_6 = getelementptr inbounds %"class.google::protobuf::MessageLite", ptr %this1, i32 0, i32 1
  store ptr %_internal_metadata_6, ptr %this.addr.i10, align 8
  store ptr @_ZN6google8protobuf15UnknownFieldSet16default_instanceEv, ptr %default_instance.addr.i, align 8
  %this1.i11 = load ptr, ptr %this.addr.i10, align 8
  store ptr %this1.i11, ptr %this.addr.i.i, align 8
  %this1.i.i = load ptr, ptr %this.addr.i.i, align 8
  store ptr %this1.i.i, ptr %this.addr.i12, align 8
  %this1.i13 = load ptr, ptr %this.addr.i12, align 8
  %3 = load i64, ptr %this1.i13, align 8
  %and.i = and i64 %3, 1
  %tobool.i = icmp ne i64 %and.i, 0
  br i1 %tobool.i, label %if.then.i, label %if.else.i

if.then.i:                                        ; preds = %if.then5
  %call2.i = call noundef ptr @_ZNK6google8protobuf8internal16InternalMetadata8PtrValueINS2_9ContainerINS0_15UnknownFieldSetEEEEEPT_v(ptr noundef nonnull align 8 dereferenceable(8) %this1.i11)
  %unknown_fields.i = getelementptr inbounds %"struct.google::protobuf::internal::InternalMetadata::Container", ptr %call2.i, i32 0, i32 1
  store ptr %unknown_fields.i, ptr %retval.i, align 8
  br label %_ZNK6google8protobuf8internal16InternalMetadata14unknown_fieldsINS0_15UnknownFieldSetEEERKT_PFS7_vE.exit

if.else.i:                                        ; preds = %if.then5
  %4 = load ptr, ptr %default_instance.addr.i, align 8
  %call3.i = call noundef nonnull align 8 dereferenceable(24) ptr %4()
  store ptr %call3.i, ptr %retval.i, align 8
  br label %_ZNK6google8protobuf8internal16InternalMetadata14unknown_fieldsINS0_15UnknownFieldSetEEERKT_PFS7_vE.exit

_ZNK6google8protobuf8internal16InternalMetadata14unknown_fieldsINS0_15UnknownFieldSetEEERKT_PFS7_vE.exit: ; preds = %if.else.i, %if.then.i
  %5 = load ptr, ptr %retval.i, align 8
  %6 = load ptr, ptr %target.addr, align 8
  %7 = load ptr, ptr %stream.addr, align 8
  %call8 = call noundef ptr @_ZN6google8protobuf8internal10WireFormat37InternalSerializeUnknownFieldsToArrayERKNS0_15UnknownFieldSetEPhPNS0_2io19EpsCopyOutputStreamE(ptr noundef nonnull align 8 dereferenceable(24) %5, ptr noundef %6, ptr noundef %7)
  store ptr %call8, ptr %target.addr, align 8
  br label %if.end9

if.end9:                                          ; preds = %_ZNK6google8protobuf8internal16InternalMetadata14unknown_fieldsINS0_15UnknownFieldSetEEERKT_PFS7_vE.exit, %if.end
  %8 = load ptr, ptr %target.addr, align 8
  ret ptr %8
}