; Function Attrs: mustprogress uwtable
define noundef ptr @_ZNK6google8protobuf10Int64Value18_InternalSerializeEPhPNS0_2io19EpsCopyOutputStreamE(ptr nocapture noundef nonnull readonly align 8 dereferenceable(32) %this, ptr noundef %target, ptr noundef %stream) unnamed_addr #3 align 2 {
entry:
  %0 = getelementptr inbounds i8, ptr %this, i64 16
  %1 = load i64, ptr %0, align 8
  %cmp.not = icmp eq i64 %1, 0
  br i1 %cmp.not, label %if.end, label %if.then

if.then:                                          ; preds = %entry
  %2 = load ptr, ptr %stream, align 8
  %cmp.not.i.i = icmp ugt ptr %2, %target
  br i1 %cmp.not.i.i, label %_ZN6google8protobuf2io19EpsCopyOutputStream11EnsureSpaceEPh.exit.i, label %if.then.i.i

if.then.i.i:                                      ; preds = %if.then
  %call.i3.i = tail call noundef ptr @_ZN6google8protobuf2io19EpsCopyOutputStream19EnsureSpaceFallbackEPh(ptr noundef nonnull align 8 dereferenceable(60) %stream, ptr noundef %target)
  br label %_ZN6google8protobuf2io19EpsCopyOutputStream11EnsureSpaceEPh.exit.i

_ZN6google8protobuf2io19EpsCopyOutputStream11EnsureSpaceEPh.exit.i: ; preds = %if.then.i.i, %if.then
  %retval.0.i.i = phi ptr [ %call.i3.i, %if.then.i.i ], [ %target, %if.then ]
  %incdec.ptr2.i.i.i = getelementptr inbounds i8, ptr %retval.0.i.i, i64 1
  store i8 8, ptr %retval.0.i.i, align 1
  %cmp.i7.i.i = icmp ugt i64 %1, 127
  br i1 %cmp.i7.i.i, label %while.body.i.i.i, label %_ZN6google8protobuf8internal14WireFormatLite26WriteInt64ToArrayWithFieldILi1EEEPhPNS0_2io19EpsCopyOutputStreamElS4_.exit

while.body.i.i.i:                                 ; preds = %_ZN6google8protobuf2io19EpsCopyOutputStream11EnsureSpaceEPh.exit.i, %while.body.i.i.i
  %value.addr.i.09.i.i = phi i64 [ %shr.i.i.i, %while.body.i.i.i ], [ %1, %_ZN6google8protobuf2io19EpsCopyOutputStream11EnsureSpaceEPh.exit.i ]
  %ptr.addr.i.08.i.i = phi ptr [ %incdec.ptr.i.i.i, %while.body.i.i.i ], [ %incdec.ptr2.i.i.i, %_ZN6google8protobuf2io19EpsCopyOutputStream11EnsureSpaceEPh.exit.i ]
  %3 = trunc i64 %value.addr.i.09.i.i to i8
  %conv.i.i.i = or i8 %3, -128
  store i8 %conv.i.i.i, ptr %ptr.addr.i.08.i.i, align 1
  %shr.i.i.i = lshr i64 %value.addr.i.09.i.i, 7
  %incdec.ptr.i.i.i = getelementptr inbounds i8, ptr %ptr.addr.i.08.i.i, i64 1
  %cmp.i.i.i = icmp ugt i64 %value.addr.i.09.i.i, 16383
  br i1 %cmp.i.i.i, label %while.body.i.i.i, label %_ZN6google8protobuf8internal14WireFormatLite26WriteInt64ToArrayWithFieldILi1EEEPhPNS0_2io19EpsCopyOutputStreamElS4_.exit, !llvm.loop !4

_ZN6google8protobuf8internal14WireFormatLite26WriteInt64ToArrayWithFieldILi1EEEPhPNS0_2io19EpsCopyOutputStreamElS4_.exit: ; preds = %while.body.i.i.i, %_ZN6google8protobuf2io19EpsCopyOutputStream11EnsureSpaceEPh.exit.i
  %ptr.addr.i.0.lcssa.i.i = phi ptr [ %incdec.ptr2.i.i.i, %_ZN6google8protobuf2io19EpsCopyOutputStream11EnsureSpaceEPh.exit.i ], [ %incdec.ptr.i.i.i, %while.body.i.i.i ]
  %value.addr.i.0.lcssa.i.i = phi i64 [ %1, %_ZN6google8protobuf2io19EpsCopyOutputStream11EnsureSpaceEPh.exit.i ], [ %shr.i.i.i, %while.body.i.i.i ]
  %conv1.i.i.i = trunc i64 %value.addr.i.0.lcssa.i.i to i8
  %incdec.ptr2.i.i4.i = getelementptr inbounds i8, ptr %ptr.addr.i.0.lcssa.i.i, i64 1
  store i8 %conv1.i.i.i, ptr %ptr.addr.i.0.lcssa.i.i, align 1
  br label %if.end

if.end:                                           ; preds = %_ZN6google8protobuf8internal14WireFormatLite26WriteInt64ToArrayWithFieldILi1EEEPhPNS0_2io19EpsCopyOutputStreamElS4_.exit, %entry
  %target.addr.0 = phi ptr [ %incdec.ptr2.i.i4.i, %_ZN6google8protobuf8internal14WireFormatLite26WriteInt64ToArrayWithFieldILi1EEEPhPNS0_2io19EpsCopyOutputStreamElS4_.exit ], [ %target, %entry ]
  %_internal_metadata_ = getelementptr inbounds i8, ptr %this, i64 8
  %4 = load i64, ptr %_internal_metadata_, align 8
  %and.i16 = and i64 %4, 1
  %tobool.i17.not = icmp eq i64 %and.i16, 0
  br i1 %tobool.i17.not, label %if.end9, label %if.then.i

if.then.i:                                        ; preds = %if.end
  %and.i = and i64 %4, -2
  %5 = inttoptr i64 %and.i to ptr
  %unknown_fields.i = getelementptr inbounds i8, ptr %5, i64 8
  %call8 = tail call noundef ptr @_ZN6google8protobuf8internal10WireFormat37InternalSerializeUnknownFieldsToArrayERKNS0_15UnknownFieldSetEPhPNS0_2io19EpsCopyOutputStreamE(ptr noundef nonnull align 8 dereferenceable(24) %unknown_fields.i, ptr noundef %target.addr.0, ptr noundef %stream)
  br label %if.end9

if.end9:                                          ; preds = %if.then.i, %if.end
  %target.addr.1 = phi ptr [ %call8, %if.then.i ], [ %target.addr.0, %if.end ]
  ret ptr %target.addr.1
}